target datalayout = "e-m:e-p270:32:32-p271:32:32-p272:64:64-i64:64-i128:128-f80:128-n8:16:32:64-S128"
target triple = "x86_64-pc-linux-gnu"

%struct.t_trxframe = type { i32, i8, i32, i8, i64, i8, float, i8, i8, float, i32, i8, ptr, i8, float, i8, ptr, i8, ptr, i8, ptr, i8, [3 x [3 x float]], i8, i32, i8, ptr }

; Function Attrs: mustprogress nounwind uwtable
define internal void @_ZL9clear_matPA3_f(ptr noundef %0) #0 {
  %2 = alloca ptr, align 8
  %3 = alloca float, align 4
  store ptr %0, ptr %2, align 8
  store float 0.000000e+00, ptr %3, align 4
  %4 = load ptr, ptr %2, align 8
  %5 = getelementptr inbounds [3 x float], ptr %4, i64 0
  %6 = getelementptr inbounds [3 x float], ptr %5, i64 0, i64 2
  store float 0.000000e+00, ptr %6, align 4
  %7 = load ptr, ptr %2, align 8
  %8 = getelementptr inbounds [3 x float], ptr %7, i64 0
  %9 = getelementptr inbounds [3 x float], ptr %8, i64 0, i64 1
  store float 0.000000e+00, ptr %9, align 4
  %10 = load ptr, ptr %2, align 8
  %11 = getelementptr inbounds [3 x float], ptr %10, i64 0
  %12 = getelementptr inbounds [3 x float], ptr %11, i64 0, i64 0
  store float 0.000000e+00, ptr %12, align 4
  %13 = load ptr, ptr %2, align 8
  %14 = getelementptr inbounds [3 x float], ptr %13, i64 1
  %15 = getelementptr inbounds [3 x float], ptr %14, i64 0, i64 2
  store float 0.000000e+00, ptr %15, align 4
  %16 = load ptr, ptr %2, align 8
  %17 = getelementptr inbounds [3 x float], ptr %16, i64 1
  %18 = getelementptr inbounds [3 x float], ptr %17, i64 0, i64 1
  store float 0.000000e+00, ptr %18, align 4
  %19 = load ptr, ptr %2, align 8
  %20 = getelementptr inbounds [3 x float], ptr %19, i64 1
  %21 = getelementptr inbounds [3 x float], ptr %20, i64 0, i64 0
  store float 0.000000e+00, ptr %21, align 4
  %22 = load ptr, ptr %2, align 8
  %23 = getelementptr inbounds [3 x float], ptr %22, i64 2
  %24 = getelementptr inbounds [3 x float], ptr %23, i64 0, i64 2
  store float 0.000000e+00, ptr %24, align 4
  %25 = load ptr, ptr %2, align 8
  %26 = getelementptr inbounds [3 x float], ptr %25, i64 2
  %27 = getelementptr inbounds [3 x float], ptr %26, i64 0, i64 1
  store float 0.000000e+00, ptr %27, align 4
  %28 = load ptr, ptr %2, align 8
  %29 = getelementptr inbounds [3 x float], ptr %28, i64 2
  %30 = getelementptr inbounds [3 x float], ptr %29, i64 0, i64 0
  store float 0.000000e+00, ptr %30, align 4
  ret void
}

; Function Attrs: mustprogress uwtable
define void @_Z14clear_trxframeP10t_trxframeb(ptr noundef %0, i1 noundef zeroext %1) #2 {
  %3 = alloca ptr, align 8
  %4 = alloca i8, align 1
  store ptr %0, ptr %3, align 8
  %5 = zext i1 %1 to i8
  store i8 %5, ptr %4, align 1
  %6 = load ptr, ptr %3, align 8
  %7 = getelementptr inbounds %struct.t_trxframe, ptr %6, i32 0, i32 0
  store i32 0, ptr %7, align 8
  %8 = load ptr, ptr %3, align 8
  %9 = getelementptr inbounds %struct.t_trxframe, ptr %8, i32 0, i32 3
  store i8 0, ptr %9, align 4
  %10 = load ptr, ptr %3, align 8
  %11 = getelementptr inbounds %struct.t_trxframe, ptr %10, i32 0, i32 5
  store i8 0, ptr %11, align 8
  %12 = load ptr, ptr %3, align 8
  %13 = getelementptr inbounds %struct.t_trxframe, ptr %12, i32 0, i32 7
  store i8 0, ptr %13, align 8
  %14 = load ptr, ptr %3, align 8
  %15 = getelementptr inbounds %struct.t_trxframe, ptr %14, i32 0, i32 8
  store i8 0, ptr %15, align 1
  %16 = load ptr, ptr %3, align 8
  %17 = getelementptr inbounds %struct.t_trxframe, ptr %16, i32 0, i32 11
  store i8 0, ptr %17, align 4
  %18 = load ptr, ptr %3, align 8
  %19 = getelementptr inbounds %struct.t_trxframe, ptr %18, i32 0, i32 13
  store i8 0, ptr %19, align 8
  %20 = load ptr, ptr %3, align 8
  %21 = getelementptr inbounds %struct.t_trxframe, ptr %20, i32 0, i32 15
  store i8 0, ptr %21, align 8
  %22 = load ptr, ptr %3, align 8
  %23 = getelementptr inbounds %struct.t_trxframe, ptr %22, i32 0, i32 17
  store i8 0, ptr %23, align 8
  %24 = load ptr, ptr %3, align 8
  %25 = getelementptr inbounds %struct.t_trxframe, ptr %24, i32 0, i32 19
  store i8 0, ptr %25, align 8
  %26 = load ptr, ptr %3, align 8
  %27 = getelementptr inbounds %struct.t_trxframe, ptr %26, i32 0, i32 21
  store i8 0, ptr %27, align 8
  %28 = load i8, ptr %4, align 1
  %29 = trunc i8 %28 to i1
  br i1 %29, label %30, label %64

30:                                               ; preds = %2
  %31 = load ptr, ptr %3, align 8
  %32 = getelementptr inbounds %struct.t_trxframe, ptr %31, i32 0, i32 1
  store i8 0, ptr %32, align 4
  %33 = load ptr, ptr %3, align 8
  %34 = getelementptr inbounds %struct.t_trxframe, ptr %33, i32 0, i32 2
  store i32 -1, ptr %34, align 8
  %35 = load ptr, ptr %3, align 8
  %36 = getelementptr inbounds %struct.t_trxframe, ptr %35, i32 0, i32 4
  store i64 0, ptr %36, align 8
  %37 = load ptr, ptr %3, align 8
  %38 = getelementptr inbounds %struct.t_trxframe, ptr %37, i32 0, i32 6
  store float 0.000000e+00, ptr %38, align 4
  %39 = load ptr, ptr %3, align 8
  %40 = getelementptr inbounds %struct.t_trxframe, ptr %39, i32 0, i32 9
  store float 0.000000e+00, ptr %40, align 4
  %41 = load ptr, ptr %3, align 8
  %42 = getelementptr inbounds %struct.t_trxframe, ptr %41, i32 0, i32 10
  store i32 0, ptr %42, align 8
  %43 = load ptr, ptr %3, align 8
  %44 = getelementptr inbounds %struct.t_trxframe, ptr %43, i32 0, i32 12
  store ptr null, ptr %44, align 8
  %45 = load ptr, ptr %3, align 8
  %46 = getelementptr inbounds %struct.t_trxframe, ptr %45, i32 0, i32 14
  store float 0.000000e+00, ptr %46, align 4
  %47 = load ptr, ptr %3, align 8
  %48 = getelementptr inbounds %struct.t_trxframe, ptr %47, i32 0, i32 16
  store ptr null, ptr %48, align 8
  %49 = load ptr, ptr %3, align 8
  %50 = getelementptr inbounds %struct.t_trxframe, ptr %49, i32 0, i32 18
  store ptr null, ptr %50, align 8
  %51 = load ptr, ptr %3, align 8
  %52 = getelementptr inbounds %struct.t_trxframe, ptr %51, i32 0, i32 20
  store ptr null, ptr %52, align 8
  %53 = load ptr, ptr %3, align 8
  %54 = getelementptr inbounds %struct.t_trxframe, ptr %53, i32 0, i32 22
  %55 = getelementptr inbounds [3 x [3 x float]], ptr %54, i64 0, i64 0
  call void @_ZL9clear_matPA3_f(ptr noundef %55)
  %56 = load ptr, ptr %3, align 8
  %57 = getelementptr inbounds %struct.t_trxframe, ptr %56, i32 0, i32 23
  store i8 0, ptr %57, align 8
  %58 = load ptr, ptr %3, align 8
  %59 = getelementptr inbounds %struct.t_trxframe, ptr %58, i32 0, i32 24
  store i32 4, ptr %59, align 4
  %60 = load ptr, ptr %3, align 8
  %61 = getelementptr inbounds %struct.t_trxframe, ptr %60, i32 0, i32 25
  store i8 0, ptr %61, align 8
  %62 = load ptr, ptr %3, align 8
  %63 = getelementptr inbounds %struct.t_trxframe, ptr %62, i32 0, i32 26
  store ptr null, ptr %63, align 8
  br label %64

64:                                               ; preds = %30, %2
  ret void
}