; Function Attrs: mustprogress nofree norecurse nosync nounwind willreturn memory(argmem: write) uwtable
define void @_Z14clear_trxframeP10t_trxframeb(ptr nocapture noundef writeonly %0, i1 noundef zeroext %1) local_unnamed_addr #15 {
  store i32 0, ptr %0, align 8
  %3 = getelementptr inbounds i8, ptr %0, i64 12
  store i8 0, ptr %3, align 4
  %4 = getelementptr inbounds i8, ptr %0, i64 24
  store i8 0, ptr %4, align 8
  %5 = getelementptr inbounds i8, ptr %0, i64 32
  store i8 0, ptr %5, align 8
  %6 = getelementptr inbounds i8, ptr %0, i64 33
  store i8 0, ptr %6, align 1
  %7 = getelementptr inbounds i8, ptr %0, i64 44
  store i8 0, ptr %7, align 4
  %8 = getelementptr inbounds i8, ptr %0, i64 56
  store i8 0, ptr %8, align 8
  %9 = getelementptr inbounds i8, ptr %0, i64 64
  store i8 0, ptr %9, align 8
  %10 = getelementptr inbounds i8, ptr %0, i64 80
  store i8 0, ptr %10, align 8
  %11 = getelementptr inbounds i8, ptr %0, i64 96
  store i8 0, ptr %11, align 8
  %12 = getelementptr inbounds i8, ptr %0, i64 112
  store i8 0, ptr %12, align 8
  br i1 %1, label %13, label %29

13:                                               ; preds = %2
  %14 = getelementptr inbounds i8, ptr %0, i64 4
  store i8 0, ptr %14, align 4
  %15 = getelementptr inbounds i8, ptr %0, i64 8
  store i32 -1, ptr %15, align 8
  %16 = getelementptr inbounds i8, ptr %0, i64 16
  store i64 0, ptr %16, align 8
  %17 = getelementptr inbounds i8, ptr %0, i64 28
  store float 0.000000e+00, ptr %17, align 4
  %18 = getelementptr inbounds i8, ptr %0, i64 36
  store float 0.000000e+00, ptr %18, align 4
  %19 = getelementptr inbounds i8, ptr %0, i64 40
  store i32 0, ptr %19, align 8
  %20 = getelementptr inbounds i8, ptr %0, i64 48
  store ptr null, ptr %20, align 8
  %21 = getelementptr inbounds i8, ptr %0, i64 60
  store float 0.000000e+00, ptr %21, align 4
  %22 = getelementptr inbounds i8, ptr %0, i64 72
  store ptr null, ptr %22, align 8
  %23 = getelementptr inbounds i8, ptr %0, i64 88
  store ptr null, ptr %23, align 8
  %24 = getelementptr inbounds i8, ptr %0, i64 104
  store ptr null, ptr %24, align 8
  %25 = getelementptr inbounds i8, ptr %0, i64 116
  %26 = getelementptr inbounds i8, ptr %0, i64 156
  tail call void @llvm.memset.p0.i64(ptr noundef nonnull align 4 dereferenceable(37) %25, i8 0, i64 37, i1 false)
  store i32 4, ptr %26, align 4
  %27 = getelementptr inbounds i8, ptr %0, i64 160
  store i8 0, ptr %27, align 8
  %28 = getelementptr inbounds i8, ptr %0, i64 168
  store ptr null, ptr %28, align 8
  br label %29

29:                                               ; preds = %13, %2
  ret void
}